Certificate:
    Data:
        Version: 1 (0x0)
        Serial Number: 4099 (0x1003)
        Signature Algorithm: sha256WithRSAEncryption
        Issuer: C=AU, ST=NSW, L=Darlington, O=Honest Ralphs Used Certificates, OU=INFO3616 Special Deals, CN=Honest Ralph's Used Certificates for INFO3616/emailAddress=ralph.holz@sydney.edu.au
        Validity
            Not Before: Oct 16 00:35:15 2019 GMT
            Not After : Oct 25 00:35:15 2020 GMT
        Subject: C=AU, ST=NSW, L=Darlington, O=INFO3616, OU=PingPong, CN=localhost/emailAddress=ralph.holz@sydney.edu.au
        Subject Public Key Info:
            Public Key Algorithm: rsaEncryption
                RSA Public-Key: (2048 bit)
                Modulus:
                    00:a0:83:20:5d:52:75:ed:fe:db:a7:46:c7:2d:9a:
                    54:43:ff:12:16:5f:df:ed:46:b9:6f:af:7b:e0:ba:
                    7e:09:a0:0d:78:9c:4e:ed:41:2e:c4:71:c2:12:53:
                    5f:a7:5f:b9:03:07:66:d9:e8:3e:b8:c9:f4:4c:a3:
                    00:c7:ae:d1:a7:bf:3c:c4:7d:7b:c8:53:4d:f3:2b:
                    a6:b2:ef:79:a5:c2:c8:3a:63:6b:53:bd:00:88:29:
                    3d:42:6e:86:26:1a:59:99:4d:6d:60:f9:40:e2:b7:
                    87:80:11:8c:2f:19:df:df:e8:ac:5c:4f:2f:54:43:
                    2f:7d:e4:7d:fc:5b:a7:86:f6:ab:ab:a5:cf:14:35:
                    dd:98:ea:f2:91:84:84:54:7a:d7:96:5a:ee:22:2c:
                    cf:82:fc:c8:aa:37:d4:7c:f3:6e:92:07:56:f4:30:
                    76:e4:45:97:d5:7e:31:71:b4:52:d6:75:47:70:cd:
                    d6:bb:45:f1:c5:74:be:ae:fb:70:ae:81:49:80:fa:
                    22:2f:15:4e:ec:35:27:7e:03:24:2e:04:50:cb:49:
                    4e:50:55:4f:c8:f3:b1:36:75:a0:7c:77:1b:0c:cf:
                    c1:80:7b:91:e9:0e:99:b4:a5:50:90:df:3b:19:aa:
                    38:85:4d:b0:8f:55:40:a7:f5:1a:a9:af:03:bd:57:
                    bd:77
                Exponent: 65537 (0x10001)
    Signature Algorithm: sha256WithRSAEncryption
         89:02:49:b9:a6:dd:9f:44:fe:e0:cd:50:54:dc:d9:79:6b:4e:
         d5:23:f0:f6:e2:8c:e8:6e:f0:c1:93:79:7d:1f:10:34:be:96:
         0e:ef:39:6e:ac:f9:15:71:ee:e6:2e:51:34:9e:8e:e0:35:db:
         3c:01:84:61:d8:31:3f:64:53:02:b0:54:6a:04:c4:16:65:87:
         4a:79:61:cf:df:cf:c6:64:fe:79:b6:76:9a:7a:95:5c:b0:1d:
         b1:06:9b:46:a7:d3:27:73:c0:51:8d:ee:34:bb:89:72:af:70:
         0f:40:47:64:f5:e7:ca:21:37:cd:a1:fa:36:b6:d0:e5:5f:51:
         4e:d2:af:63:cf:b8:d3:8b:ae:34:e6:17:10:e2:b1:be:43:55:
         f1:f9:ea:0b:99:3d:7b:b8:37:6f:df:5c:7b:84:bd:c1:70:cf:
         e0:74:11:9a:5f:25:b1:68:16:a9:f6:09:a3:4b:1c:fa:80:eb:
         f6:c2:4f:1c:c1:aa:25:91:2b:0f:c3:f1:c9:5b:81:9b:87:d5:
         9c:16:f4:8b:51:94:bf:81:3e:dc:64:51:18:9d:b9:46:cf:38:
         51:29:2e:b8:c2:f9:a2:a2:70:ee:2d:1e:35:75:24:1d:be:0d:
         5d:e3:24:4d:4d:04:db:35:ad:dc:67:1c:d9:1d:63:f1:3c:a8:
         d4:db:df:b9:85:2c:5b:b7:53:a2:cd:5f:eb:30:d6:67:2e:4a:
         23:6c:78:aa:db:25:3b:85:53:03:20:99:9e:d0:a3:d6:86:34:
         ee:ab:e8:1b:01:69:ab:cc:fe:8b:78:09:e1:21:bd:a3:e2:ac:
         ab:e6:50:d9:b4:a7:39:99:69:92:f7:4a:73:69:9e:60:37:ea:
         7e:47:1b:26:f8:d0:8d:24:a3:78:14:6b:f0:03:01:e3:1d:70:
         19:65:a3:5a:fc:48:01:81:42:5a:c4:b8:3a:a3:f3:8d:ef:26:
         fa:05:a2:d6:5f:b5:90:db:8d:0e:ab:4e:15:7d:53:a6:ca:f3:
         c0:eb:e4:1d:90:42:a3:d8:68:2b:1a:9e:7d:e1:ec:8e:24:0a:
         c9:3f:9c:50:b6:ea:4e:e5:89:f9:15:78:ee:67:ae:52:eb:ba:
         6e:dc:40:ca:86:be:bb:72:4e:ad:9f:fc:b2:55:59:b9:2e:c7:
         78:bc:41:22:da:5e:40:b8:45:84:ee:68:2e:a2:d2:d0:be:97:
         33:69:e6:bb:e7:61:86:3d:4a:9c:07:48:0b:45:f3:e0:79:bc:
         26:79:4d:d6:1e:c6:ae:e9:b3:17:99:82:08:42:04:95:99:e4:
         5d:3c:da:13:0d:13:8c:4b:c0:de:3c:f4:55:c8:ed:55:48:fa:
         65:a8:d4:3d:29:2e:7c:1d
-----BEGIN CERTIFICATE-----
MIIE5jCCAs4CAhADMA0GCSqGSIb3DQEBCwUAMIHcMQswCQYDVQQGEwJBVTEMMAoG
A1UECAwDTlNXMRMwEQYDVQQHDApEYXJsaW5ndG9uMSgwJgYDVQQKDB9Ib25lc3Qg
UmFscGhzIFVzZWQgQ2VydGlmaWNhdGVzMR8wHQYDVQQLDBZJTkZPMzYxNiBTcGVj
aWFsIERlYWxzMTYwNAYDVQQDDC1Ib25lc3QgUmFscGgncyBVc2VkIENlcnRpZmlj
YXRlcyBmb3IgSU5GTzM2MTYxJzAlBgkqhkiG9w0BCQEWGHJhbHBoLmhvbHpAc3lk
bmV5LmVkdS5hdTAeFw0xOTEwMTYwMDM1MTVaFw0yMDEwMjUwMDM1MTVaMIGTMQsw
CQYDVQQGEwJBVTEMMAoGA1UECAwDTlNXMRMwEQYDVQQHDApEYXJsaW5ndG9uMREw
DwYDVQQKDAhJTkZPMzYxNjERMA8GA1UECwwIUGluZ1BvbmcxEjAQBgNVBAMMCWxv
Y2FsaG9zdDEnMCUGCSqGSIb3DQEJARYYcmFscGguaG9sekBzeWRuZXkuZWR1LmF1
MIIBIjANBgkqhkiG9w0BAQEFAAOCAQ8AMIIBCgKCAQEAoIMgXVJ17f7bp0bHLZpU
Q/8SFl/f7Ua5b6974Lp+CaANeJxO7UEuxHHCElNfp1+5Awdm2eg+uMn0TKMAx67R
p788xH17yFNN8yumsu95pcLIOmNrU70AiCk9Qm6GJhpZmU1tYPlA4reHgBGMLxnf
3+isXE8vVEMvfeR9/Funhvarq6XPFDXdmOrykYSEVHrXllruIizPgvzIqjfUfPNu
kgdW9DB25EWX1X4xcbRS1nVHcM3Wu0XxxXS+rvtwroFJgPoiLxVO7DUnfgMkLgRQ
y0lOUFVPyPOxNnWgfHcbDM/BgHuR6Q6ZtKVQkN87Gao4hU2wj1VAp/Uaqa8DvVe9
dwIDAQABMA0GCSqGSIb3DQEBCwUAA4ICAQCJAkm5pt2fRP7gzVBU3Nl5a07VI/D2
4ozobvDBk3l9HxA0vpYO7zlurPkVce7mLlE0no7gNds8AYRh2DE/ZFMCsFRqBMQW
ZYdKeWHP38/GZP55tnaaepVcsB2xBptGp9Mnc8BRje40u4lyr3APQEdk9efKITfN
ofo2ttDlX1FO0q9jz7jTi6405hcQ4rG+Q1Xx+eoLmT17uDdv31x7hL3BcM/gdBGa
XyWxaBap9gmjSxz6gOv2wk8cwaolkSsPw/HJW4Gbh9WcFvSLUZS/gT7cZFEYnblG
zzhRKS64wvmionDuLR41dSQdvg1d4yRNTQTbNa3cZxzZHWPxPKjU29+5hSxbt1Oi
zV/rMNZnLkojbHiq2yU7hVMDIJme0KPWhjTuq+gbAWmrzP6LeAnhIb2j4qyr5lDZ
tKc5mWmS90pzaZ5gN+p+Rxsm+NCNJKN4FGvwAwHjHXAZZaNa/EgBgUJaxLg6o/ON
7yb6BaLWX7WQ240Oq04VfVOmyvPA6+QdkEKj2GgrGp594eyOJArJP5xQtupO5Yn5
FXjuZ65S67pu3EDKhr67ck6tn/yyVVm5Lsd4vEEi2l5AuEWE7mguotLQvpczaea7
52GGPUqcB0gLRfPgebwmeU3WHsau6bMXmYIIQgSVmeRdPNoTDROMS8DePPRVyO1V
SPplqNQ9KS58HQ==
-----END CERTIFICATE-----
